; ModuleID = '43/225.c'
source_filename = "43/225.c"
target datalayout = "e-m:e-p270:32:32-p271:32:32-p272:64:64-i64:64-f80:128-n8:16:32:64-S128"
target triple = "x86_64-pc-linux-gnu"

@.str = private unnamed_addr constant [3 x i8] c"%d\00", align 1
@.str.1 = private unnamed_addr constant [7 x i8] c"%d %d\0A\00", align 1

; Function Attrs: noinline nounwind uwtable
define dso_local i32 @main() #0 {
  %1 = alloca i32, align 4
  %2 = alloca [10000 x i32], align 16
  %3 = alloca [10000 x i32], align 16
  %4 = alloca i32, align 4
  %5 = alloca i32, align 4
  %6 = alloca i32, align 4
  %7 = alloca i32, align 4
  %8 = alloca i32, align 4
  %9 = alloca i32, align 4
  %10 = alloca i32, align 4
  %11 = alloca i32, align 4
  store i32 0, i32* %1, align 4
  store i32 2, i32* %5, align 4
  store i32 2, i32* %6, align 4
  store i32 1, i32* %7, align 4
  store i32 1, i32* %8, align 4
  store i32 2, i32* %9, align 4
  store i32 1, i32* %10, align 4
  store i32 1, i32* %11, align 4
  %12 = call i32 (i8*, ...) @__isoc99_scanf(i8* getelementptr inbounds ([3 x i8], [3 x i8]* @.str, i64 0, i64 0), i32* %4)
  br label %13

13:                                               ; preds = %43, %0
  %14 = load i32, i32* %5, align 4
  %15 = load i32, i32* %4, align 4
  %16 = icmp slt i32 %14, %15
  br i1 %16, label %17, label %46

17:                                               ; preds = %13
  store i32 2, i32* %9, align 4
  br label %18

18:                                               ; preds = %29, %17
  %19 = load i32, i32* %9, align 4
  %20 = load i32, i32* %5, align 4
  %21 = icmp slt i32 %19, %20
  br i1 %21, label %22, label %32

22:                                               ; preds = %18
  %23 = load i32, i32* %5, align 4
  %24 = load i32, i32* %9, align 4
  %25 = srem i32 %23, %24
  %26 = icmp eq i32 %25, 0
  br i1 %26, label %27, label %28

27:                                               ; preds = %22
  br label %32

28:                                               ; preds = %22
  br label %29

29:                                               ; preds = %28
  %30 = load i32, i32* %9, align 4
  %31 = add nsw i32 %30, 1
  store i32 %31, i32* %9, align 4
  br label %18

32:                                               ; preds = %27, %18
  %33 = load i32, i32* %9, align 4
  %34 = load i32, i32* %5, align 4
  %35 = icmp eq i32 %33, %34
  br i1 %35, label %36, label %43

36:                                               ; preds = %32
  %37 = load i32, i32* %5, align 4
  %38 = load i32, i32* %7, align 4
  %39 = sext i32 %38 to i64
  %40 = getelementptr inbounds [10000 x i32], [10000 x i32]* %2, i64 0, i64 %39
  store i32 %37, i32* %40, align 4
  %41 = load i32, i32* %7, align 4
  %42 = add nsw i32 %41, 1
  store i32 %42, i32* %7, align 4
  br label %43

43:                                               ; preds = %36, %32
  %44 = load i32, i32* %5, align 4
  %45 = add nsw i32 %44, 1
  store i32 %45, i32* %5, align 4
  br label %13

46:                                               ; preds = %13
  br label %47

47:                                               ; preds = %77, %46
  %48 = load i32, i32* %6, align 4
  %49 = load i32, i32* %4, align 4
  %50 = icmp slt i32 %48, %49
  br i1 %50, label %51, label %80

51:                                               ; preds = %47
  store i32 2, i32* %9, align 4
  br label %52

52:                                               ; preds = %63, %51
  %53 = load i32, i32* %9, align 4
  %54 = load i32, i32* %6, align 4
  %55 = icmp slt i32 %53, %54
  br i1 %55, label %56, label %66

56:                                               ; preds = %52
  %57 = load i32, i32* %6, align 4
  %58 = load i32, i32* %9, align 4
  %59 = srem i32 %57, %58
  %60 = icmp eq i32 %59, 0
  br i1 %60, label %61, label %62

61:                                               ; preds = %56
  br label %66

62:                                               ; preds = %56
  br label %63

63:                                               ; preds = %62
  %64 = load i32, i32* %9, align 4
  %65 = add nsw i32 %64, 1
  store i32 %65, i32* %9, align 4
  br label %52

66:                                               ; preds = %61, %52
  %67 = load i32, i32* %9, align 4
  %68 = load i32, i32* %6, align 4
  %69 = icmp eq i32 %67, %68
  br i1 %69, label %70, label %77

70:                                               ; preds = %66
  %71 = load i32, i32* %6, align 4
  %72 = load i32, i32* %8, align 4
  %73 = sext i32 %72 to i64
  %74 = getelementptr inbounds [10000 x i32], [10000 x i32]* %3, i64 0, i64 %73
  store i32 %71, i32* %74, align 4
  %75 = load i32, i32* %8, align 4
  %76 = add nsw i32 %75, 1
  store i32 %76, i32* %8, align 4
  br label %77

77:                                               ; preds = %70, %66
  %78 = load i32, i32* %6, align 4
  %79 = add nsw i32 %78, 1
  store i32 %79, i32* %6, align 4
  br label %47

80:                                               ; preds = %47
  br label %81

81:                                               ; preds = %120, %80
  %82 = load i32, i32* %10, align 4
  %83 = load i32, i32* %7, align 4
  %84 = icmp sle i32 %82, %83
  br i1 %84, label %85, label %123

85:                                               ; preds = %81
  store i32 0, i32* %11, align 4
  br label %86

86:                                               ; preds = %117, %85
  %87 = load i32, i32* %11, align 4
  %88 = load i32, i32* %8, align 4
  %89 = icmp sle i32 %87, %88
  br i1 %89, label %90, label %120

90:                                               ; preds = %86
  %91 = load i32, i32* %10, align 4
  %92 = sext i32 %91 to i64
  %93 = getelementptr inbounds [10000 x i32], [10000 x i32]* %2, i64 0, i64 %92
  %94 = load i32, i32* %93, align 4
  %95 = load i32, i32* %11, align 4
  %96 = sext i32 %95 to i64
  %97 = getelementptr inbounds [10000 x i32], [10000 x i32]* %3, i64 0, i64 %96
  %98 = load i32, i32* %97, align 4
  %99 = add nsw i32 %94, %98
  %100 = load i32, i32* %4, align 4
  %101 = icmp eq i32 %99, %100
  br i1 %101, label %102, label %117

102:                                              ; preds = %90
  %103 = load i32, i32* %10, align 4
  %104 = load i32, i32* %11, align 4
  %105 = icmp sle i32 %103, %104
  br i1 %105, label %106, label %116

106:                                              ; preds = %102
  %107 = load i32, i32* %10, align 4
  %108 = sext i32 %107 to i64
  %109 = getelementptr inbounds [10000 x i32], [10000 x i32]* %2, i64 0, i64 %108
  %110 = load i32, i32* %109, align 4
  %111 = load i32, i32* %11, align 4
  %112 = sext i32 %111 to i64
  %113 = getelementptr inbounds [10000 x i32], [10000 x i32]* %3, i64 0, i64 %112
  %114 = load i32, i32* %113, align 4
  %115 = call i32 (i8*, ...) @printf(i8* getelementptr inbounds ([7 x i8], [7 x i8]* @.str.1, i64 0, i64 0), i32 %110, i32 %114)
  br label %116

116:                                              ; preds = %106, %102
  br label %117

117:                                              ; preds = %116, %90
  %118 = load i32, i32* %11, align 4
  %119 = add nsw i32 %118, 1
  store i32 %119, i32* %11, align 4
  br label %86

120:                                              ; preds = %86
  %121 = load i32, i32* %10, align 4
  %122 = add nsw i32 %121, 1
  store i32 %122, i32* %10, align 4
  br label %81

123:                                              ; preds = %81
  ret i32 0
}

declare dso_local i32 @__isoc99_scanf(i8*, ...) #1

declare dso_local i32 @printf(i8*, ...) #1


!llvm.module.flags = !{!0}
!llvm.ident = !{!1}

!0 = !{i32 1, !"wchar_size", i32 4}
!1 = !{!"clang version 10.0.0-4ubuntu1 "}
